target datalayout = "e-m:e-p270:32:32-p271:32:32-p272:64:64-i64:64-i128:128-f80:128-n8:16:32:64-S128"
target triple = "x86_64-pc-linux-gnu"

%struct._xmlNode = type { ptr, i32, ptr, ptr, ptr, ptr, ptr, ptr, ptr, ptr, ptr, ptr, ptr, ptr, i16, i16 }
%struct._xmlNs = type { ptr, i32, ptr, ptr, ptr, ptr }

; Function Attrs: nounwind uwtable
define internal void @sxe_add_registered_namespaces(ptr noundef %0, ptr noundef %1, i1 noundef zeroext %2, ptr noundef %3) #0 {
  %5 = alloca ptr, align 8
  %6 = alloca ptr, align 8
  %7 = alloca i8, align 1
  %8 = alloca ptr, align 8
  %9 = alloca ptr, align 8
  store ptr %0, ptr %5, align 8
  store ptr %1, ptr %6, align 8
  %10 = zext i1 %2 to i8
  store i8 %10, ptr %7, align 1
  store ptr %3, ptr %8, align 8
  %11 = load ptr, ptr %6, align 8
  %12 = getelementptr inbounds %struct._xmlNode, ptr %11, i32 0, i32 1
  %13 = load i32, ptr %12, align 8
  %14 = icmp eq i32 %13, 1
  br i1 %14, label %15, label %49

15:                                               ; preds = %4
  %16 = load ptr, ptr %6, align 8
  %17 = getelementptr inbounds %struct._xmlNode, ptr %16, i32 0, i32 12
  %18 = load ptr, ptr %17, align 8
  store ptr %18, ptr %9, align 8
  br label %19

19:                                               ; preds = %22, %15
  %20 = load ptr, ptr %9, align 8
  %21 = icmp ne ptr %20, null
  br i1 %21, label %22, label %28

22:                                               ; preds = %19
  %23 = load ptr, ptr %8, align 8
  %24 = load ptr, ptr %9, align 8
  call void @sxe_add_namespace_name(ptr noundef %23, ptr noundef %24)
  %25 = load ptr, ptr %9, align 8
  %26 = getelementptr inbounds %struct._xmlNs, ptr %25, i32 0, i32 0
  %27 = load ptr, ptr %26, align 8
  store ptr %27, ptr %9, align 8
  br label %19

28:                                               ; preds = %19
  %29 = load i8, ptr %7, align 1
  %30 = trunc i8 %29 to i1
  br i1 %30, label %31, label %48

31:                                               ; preds = %28
  %32 = load ptr, ptr %6, align 8
  %33 = getelementptr inbounds %struct._xmlNode, ptr %32, i32 0, i32 3
  %34 = load ptr, ptr %33, align 8
  store ptr %34, ptr %6, align 8
  br label %35

35:                                               ; preds = %38, %31
  %36 = load ptr, ptr %6, align 8
  %37 = icmp ne ptr %36, null
  br i1 %37, label %38, label %47

38:                                               ; preds = %35
  %39 = load ptr, ptr %5, align 8
  %40 = load ptr, ptr %6, align 8
  %41 = load i8, ptr %7, align 1
  %42 = trunc i8 %41 to i1
  %43 = load ptr, ptr %8, align 8
  call void @sxe_add_registered_namespaces(ptr noundef %39, ptr noundef %40, i1 noundef zeroext %42, ptr noundef %43)
  %44 = load ptr, ptr %6, align 8
  %45 = getelementptr inbounds %struct._xmlNode, ptr %44, i32 0, i32 6
  %46 = load ptr, ptr %45, align 8
  store ptr %46, ptr %6, align 8
  br label %35

47:                                               ; preds = %35
  br label %48

48:                                               ; preds = %47, %28
  br label %49

49:                                               ; preds = %48, %4
  ret void
}