; Function Attrs: nounwind uwtable
define internal fastcc void @sxe_add_registered_namespaces(ptr nocapture noundef readonly %0, i1 noundef zeroext %1, ptr nocapture noundef readonly %2) unnamed_addr #1 {
  %4 = getelementptr inbounds i8, ptr %0, i64 8
  %5 = load i32, ptr %4, align 8
  %6 = icmp eq i32 %5, 1
  br i1 %6, label %7, label %.loopexit

7:                                                ; preds = %3
  %8 = getelementptr inbounds i8, ptr %0, i64 96
  %.016 = load ptr, ptr %8, align 8
  %.not17 = icmp eq ptr %.016, null
  br i1 %.not17, label %._crit_edge, label %.lr.ph

.lr.ph:                                           ; preds = %7, %.lr.ph
  %.018 = phi ptr [ %.0, %.lr.ph ], [ %.016, %7 ]
  tail call fastcc void @sxe_add_namespace_name(ptr noundef %2, ptr noundef nonnull %.018)
  %.0 = load ptr, ptr %.018, align 8
  %.not = icmp eq ptr %.0, null
  br i1 %.not, label %._crit_edge, label %.lr.ph

._crit_edge:                                      ; preds = %.lr.ph, %7
  br i1 %1, label %9, label %.loopexit

9:                                                ; preds = %._crit_edge
  %10 = getelementptr inbounds i8, ptr %0, i64 24
  %.01319 = load ptr, ptr %10, align 8
  %.not1520 = icmp eq ptr %.01319, null
  br i1 %.not1520, label %.loopexit, label %.lr.ph23

.lr.ph23:                                         ; preds = %9, %.lr.ph23
  %.01321 = phi ptr [ %.013, %.lr.ph23 ], [ %.01319, %9 ]
  tail call fastcc void @sxe_add_registered_namespaces(ptr noundef nonnull %.01321, i1 noundef zeroext true, ptr noundef %2)
  %11 = getelementptr inbounds i8, ptr %.01321, i64 48
  %.013 = load ptr, ptr %11, align 8
  %.not15 = icmp eq ptr %.013, null
  br i1 %.not15, label %.loopexit, label %.lr.ph23

.loopexit:                                        ; preds = %.lr.ph23, %9, %._crit_edge, %3
  ret void
}